(dp1
S'main'
p2
(dp3
S'paramsize'
p4
I0
sS'local'
p5
(dp6
S't6'
p7
(dp8
S'type'
p9
S'Int'
p10
ssS't2'
p11
(dp12
g9
g10
ssS't3'
p13
(dp14
g9
g10
ssS't1'
p15
(dp16
g9
S'array'
p17
sS'size'
p18
I101
sssS'param'
p19
(dp20
sS'localsize'
p21
I416
ss.