(dp1
S'main'
p2
(dp3
S'paramsize'
p4
I0
sS'local'
p5
(dp6
S't9'
p7
(dp8
S'type'
p9
S'Int'
p10
sssS'param'
p11
(dp12
sS'localsize'
p13
I4
ssS'fun1'
p14
(dp15
g4
I8
sg5
(dp16
S't3'
p17
(dp18
g9
g10
sssg11
(dp19
I1
S't1'
p20
sI2
S't2'
p21
ssg13
I8
ss.