(dp1
S'main'
p2
(dp3
S'paramsize'
p4
I0
sS'local'
p5
(dp6
S't10'
p7
(dp8
S'type'
p9
S'Int'
p10
sssS'param'
p11
(dp12
sS'localsize'
p13
I4
ssS'fun1'
p14
(dp15
g4
I8
sg5
(dp16
sg11
(dp17
I1
S't1'
p18
sI2
S't2'
p19
ssg13
I0
ss.